target datalayout = "e-m:e-p270:32:32-p271:32:32-p272:64:64-i64:64-i128:128-f80:128-n8:16:32:64-S128"
target triple = "x86_64-pc-linux-gnu"

%struct.AVFilterPad = type { ptr, i32, i32, %union.anon, ptr, ptr, ptr }
%union.anon = type { ptr }
%struct.AVFilterContext = type { ptr, ptr, ptr, ptr, ptr, i32, ptr, ptr, i32, ptr, ptr, i32, i32, ptr, ptr, ptr, ptr, i32, ptr, i32, i32 }
%struct.HeadphoneContext = type { ptr, ptr, i32, i32, i32, i32, i32, i32, i32, i32, float, float, float, [2 x ptr], [2 x i32], i32, i32, i32, i32, [2 x ptr], [2 x ptr], [2 x ptr], [2 x ptr], [2 x ptr], [2 x ptr], [2 x ptr], [2 x ptr], [2 x ptr], [2 x ptr], ptr, [64 x %struct.hrir_inputs], %struct.AVChannelLayout, [64 x i32], [64 x i8] }
%struct.hrir_inputs = type { i32, i32 }
%struct.AVChannelLayout = type { i32, i32, %union.anon.1, ptr }
%union.anon.1 = type { i64 }
%struct.AVFloatDSPContext = type { ptr, ptr, ptr, ptr, ptr, ptr, ptr, ptr, ptr, ptr, ptr, ptr }

@__const.init.pad = private unnamed_addr constant %struct.AVFilterPad { ptr @.str.26, i32 1, i32 0, %union.anon zeroinitializer, ptr null, ptr null, ptr @config_input }, align 8
@.str.27 = private unnamed_addr constant [28 x i8] c"Valid mapping must be set.\0A\00", align 1
@.str.28 = private unnamed_addr constant [7 x i8] c"hrir%d\00", align 1
@.str.30 = private unnamed_addr constant [2 x i8] c"|\00", align 1
@.str.31 = private unnamed_addr constant [39 x i8] c"Failed to parse '%s' as channel name.\0A\00", align 1
@.str.32 = private unnamed_addr constant [34 x i8] c"Ignoring duplicate channel '%s'.\0A\00", align 1

; Function Attrs: nounwind uwtable
define internal i32 @parse_channel_name(ptr noundef %0, ptr noundef %1) #1 {
  %3 = alloca i32, align 4
  %4 = alloca ptr, align 8
  %5 = alloca ptr, align 8
  %6 = alloca i32, align 4
  %7 = alloca i32, align 4
  store ptr %0, ptr %4, align 8, !tbaa !30
  store ptr %1, ptr %5, align 8, !tbaa !84
  call void @llvm.lifetime.start.p0(i64 4, ptr %6) #9
  %8 = load ptr, ptr %4, align 8, !tbaa !30
  %9 = call i32 @av_channel_from_string(ptr noundef %8)
  store i32 %9, ptr %6, align 4, !tbaa !24
  %10 = load i32, ptr %6, align 4, !tbaa !24
  %11 = icmp slt i32 %10, 0
  br i1 %11, label %15, label %12

12:                                               ; preds = %2
  %13 = load i32, ptr %6, align 4, !tbaa !24
  %14 = icmp sge i32 %13, 64
  br i1 %14, label %15, label %16

15:                                               ; preds = %12, %2
  store i32 -22, ptr %3, align 4
  store i32 1, ptr %7, align 4
  br label %19

16:                                               ; preds = %12
  %17 = load i32, ptr %6, align 4, !tbaa !24
  %18 = load ptr, ptr %5, align 8, !tbaa !84
  store i32 %17, ptr %18, align 4, !tbaa !24
  store i32 0, ptr %3, align 4
  store i32 1, ptr %7, align 4
  br label %19

19:                                               ; preds = %16, %15
  call void @llvm.lifetime.end.p0(i64 4, ptr %6) #9
  %20 = load i32, ptr %3, align 4
  ret i32 %20
}

; Function Attrs: nounwind uwtable
define internal void @parse_map(ptr noundef %0) #1 {
  %2 = alloca ptr, align 8
  %3 = alloca ptr, align 8
  %4 = alloca ptr, align 8
  %5 = alloca ptr, align 8
  %6 = alloca ptr, align 8
  %7 = alloca i64, align 8
  %8 = alloca i32, align 4
  %9 = alloca i32, align 4
  store ptr %0, ptr %2, align 8, !tbaa !4
  call void @llvm.lifetime.start.p0(i64 8, ptr %3) #9
  %10 = load ptr, ptr %2, align 8, !tbaa !4
  %11 = getelementptr inbounds nuw %struct.AVFilterContext, ptr %10, i32 0, i32 9
  %12 = load ptr, ptr %11, align 8, !tbaa !9
  store ptr %12, ptr %3, align 8, !tbaa !22
  call void @llvm.lifetime.start.p0(i64 8, ptr %4) #9
  call void @llvm.lifetime.start.p0(i64 8, ptr %5) #9
  call void @llvm.lifetime.start.p0(i64 8, ptr %6) #9
  call void @llvm.lifetime.start.p0(i64 8, ptr %7) #9
  store i64 0, ptr %7, align 8, !tbaa !68
  %13 = load ptr, ptr %3, align 8, !tbaa !22
  %14 = getelementptr inbounds nuw %struct.HeadphoneContext, ptr %13, i32 0, i32 1
  %15 = load ptr, ptr %14, align 8, !tbaa !25
  store ptr %15, ptr %6, align 8, !tbaa !30
  br label %16

16:                                               ; preds = %57, %55, %1
  %17 = load ptr, ptr %6, align 8, !tbaa !30
  %18 = call ptr @av_strtok(ptr noundef %17, ptr noundef @.str.30, ptr noundef %5)
  store ptr %18, ptr %4, align 8, !tbaa !30
  %19 = icmp ne ptr %18, null
  br i1 %19, label %20, label %58

20:                                               ; preds = %16
  call void @llvm.lifetime.start.p0(i64 4, ptr %8) #9
  store ptr null, ptr %6, align 8, !tbaa !30
  %21 = load ptr, ptr %4, align 8, !tbaa !30
  %22 = call i32 @parse_channel_name(ptr noundef %21, ptr noundef %8)
  %23 = icmp ne i32 %22, 0
  br i1 %23, label %24, label %27

24:                                               ; preds = %20
  %25 = load ptr, ptr %2, align 8, !tbaa !4
  %26 = load ptr, ptr %4, align 8, !tbaa !30
  call void (ptr, i32, ptr, ...) @av_log(ptr noundef %25, i32 noundef 24, ptr noundef @.str.31, ptr noundef %26)
  store i32 2, ptr %9, align 4
  br label %55, !llvm.loop !83

27:                                               ; preds = %20
  %28 = load i64, ptr %7, align 8, !tbaa !68
  %29 = load i32, ptr %8, align 4, !tbaa !24
  %30 = zext i32 %29 to i64
  %31 = shl i64 1, %30
  %32 = and i64 %28, %31
  %33 = icmp ne i64 %32, 0
  br i1 %33, label %34, label %37

34:                                               ; preds = %27
  %35 = load ptr, ptr %2, align 8, !tbaa !4
  %36 = load ptr, ptr %4, align 8, !tbaa !30
  call void (ptr, i32, ptr, ...) @av_log(ptr noundef %35, i32 noundef 24, ptr noundef @.str.32, ptr noundef %36)
  store i32 2, ptr %9, align 4
  br label %55, !llvm.loop !83

37:                                               ; preds = %27
  %38 = load i32, ptr %8, align 4, !tbaa !24
  %39 = zext i32 %38 to i64
  %40 = shl i64 1, %39
  %41 = load i64, ptr %7, align 8, !tbaa !68
  %42 = or i64 %41, %40
  store i64 %42, ptr %7, align 8, !tbaa !68
  %43 = load i32, ptr %8, align 4, !tbaa !24
  %44 = load ptr, ptr %3, align 8, !tbaa !22
  %45 = getelementptr inbounds nuw %struct.HeadphoneContext, ptr %44, i32 0, i32 32
  %46 = load ptr, ptr %3, align 8, !tbaa !22
  %47 = getelementptr inbounds nuw %struct.HeadphoneContext, ptr %46, i32 0, i32 9
  %48 = load i32, ptr %47, align 4, !tbaa !81
  %49 = sext i32 %48 to i64
  %50 = getelementptr inbounds [64 x i32], ptr %45, i64 0, i64 %49
  store i32 %43, ptr %50, align 4, !tbaa !24
  %51 = load ptr, ptr %3, align 8, !tbaa !22
  %52 = getelementptr inbounds nuw %struct.HeadphoneContext, ptr %51, i32 0, i32 9
  %53 = load i32, ptr %52, align 4, !tbaa !81
  %54 = add nsw i32 %53, 1
  store i32 %54, ptr %52, align 4, !tbaa !81
  store i32 0, ptr %9, align 4
  br label %55

55:                                               ; preds = %37, %34, %24
  call void @llvm.lifetime.end.p0(i64 4, ptr %8) #9
  %56 = load i32, ptr %9, align 4
  switch i32 %56, label %77 [
    i32 0, label %57
    i32 2, label %16
  ]

57:                                               ; preds = %55
  br label %16, !llvm.loop !83

58:                                               ; preds = %16
  %59 = load ptr, ptr %3, align 8, !tbaa !22
  %60 = getelementptr inbounds nuw %struct.HeadphoneContext, ptr %59, i32 0, i32 31
  %61 = load i64, ptr %7, align 8, !tbaa !68
  %62 = call i32 @av_channel_layout_from_mask(ptr noundef %60, i64 noundef %61)
  %63 = load ptr, ptr %3, align 8, !tbaa !22
  %64 = getelementptr inbounds nuw %struct.HeadphoneContext, ptr %63, i32 0, i32 18
  %65 = load i32, ptr %64, align 4, !tbaa !52
  %66 = icmp eq i32 %65, 1
  br i1 %66, label %67, label %70

67:                                               ; preds = %58
  %68 = load ptr, ptr %3, align 8, !tbaa !22
  %69 = getelementptr inbounds nuw %struct.HeadphoneContext, ptr %68, i32 0, i32 8
  store i32 1, ptr %69, align 8, !tbaa !29
  br label %76

70:                                               ; preds = %58
  %71 = load ptr, ptr %3, align 8, !tbaa !22
  %72 = getelementptr inbounds nuw %struct.HeadphoneContext, ptr %71, i32 0, i32 9
  %73 = load i32, ptr %72, align 4, !tbaa !81
  %74 = load ptr, ptr %3, align 8, !tbaa !22
  %75 = getelementptr inbounds nuw %struct.HeadphoneContext, ptr %74, i32 0, i32 8
  store i32 %73, ptr %75, align 8, !tbaa !29
  br label %76

76:                                               ; preds = %70, %67
  call void @llvm.lifetime.end.p0(i64 8, ptr %7) #9
  call void @llvm.lifetime.end.p0(i64 8, ptr %6) #9
  call void @llvm.lifetime.end.p0(i64 8, ptr %5) #9
  call void @llvm.lifetime.end.p0(i64 8, ptr %4) #9
  call void @llvm.lifetime.end.p0(i64 8, ptr %3) #9
  ret void

77:                                               ; preds = %55
  unreachable
}

; Function Attrs: cold nounwind optsize uwtable
define internal i32 @init(ptr noundef %0) #0 {
  %2 = alloca i32, align 4
  %3 = alloca ptr, align 8
  %4 = alloca ptr, align 8
  %5 = alloca i32, align 4
  %6 = alloca i32, align 4
  %7 = alloca %struct.AVFilterPad, align 8
  %8 = alloca i32, align 4
  %9 = alloca ptr, align 8
  %10 = alloca %struct.AVFilterPad, align 8
  %11 = alloca ptr, align 8
  store ptr %0, ptr %3, align 8, !tbaa !4
  call void @llvm.lifetime.start.p0(i64 8, ptr %4) #9
  %12 = load ptr, ptr %3, align 8, !tbaa !4
  %13 = getelementptr inbounds nuw %struct.AVFilterContext, ptr %12, i32 0, i32 9
  %14 = load ptr, ptr %13, align 8, !tbaa !9
  store ptr %14, ptr %4, align 8, !tbaa !22
  call void @llvm.lifetime.start.p0(i64 4, ptr %5) #9
  call void @llvm.lifetime.start.p0(i64 4, ptr %6) #9
  call void @llvm.lifetime.start.p0(i64 48, ptr %7) #9
  call void @llvm.memcpy.p0.p0.i64(ptr align 8 %7, ptr align 8 @__const.init.pad, i64 48, i1 false)
  %15 = load ptr, ptr %3, align 8, !tbaa !4
  %16 = call i32 @ff_append_inpad(ptr noundef %15, ptr noundef %7)
  store i32 %16, ptr %6, align 4, !tbaa !24
  %17 = icmp slt i32 %16, 0
  br i1 %17, label %18, label %20

18:                                               ; preds = %1
  %19 = load i32, ptr %6, align 4, !tbaa !24
  store i32 %19, ptr %2, align 4
  store i32 1, ptr %8, align 4
  br label %78

20:                                               ; preds = %1
  %21 = load ptr, ptr %4, align 8, !tbaa !22
  %22 = getelementptr inbounds nuw %struct.HeadphoneContext, ptr %21, i32 0, i32 1
  %23 = load ptr, ptr %22, align 8, !tbaa !25
  %24 = icmp ne ptr %23, null
  br i1 %24, label %27, label %25

25:                                               ; preds = %20
  %26 = load ptr, ptr %3, align 8, !tbaa !4
  call void (ptr, i32, ptr, ...) @av_log(ptr noundef %26, i32 noundef 16, ptr noundef @.str.27)
  store i32 -22, ptr %2, align 4
  store i32 1, ptr %8, align 4
  br label %78

27:                                               ; preds = %20
  %28 = load ptr, ptr %3, align 8, !tbaa !4
  call void @parse_map(ptr noundef %28)
  store i32 0, ptr %5, align 4, !tbaa !24
  br label %29

29:                                               ; preds = %54, %27
  %30 = load i32, ptr %5, align 4, !tbaa !24
  %31 = load ptr, ptr %4, align 8, !tbaa !22
  %32 = getelementptr inbounds nuw %struct.HeadphoneContext, ptr %31, i32 0, i32 8
  %33 = load i32, ptr %32, align 8, !tbaa !29
  %34 = icmp slt i32 %30, %33
  br i1 %34, label %35, label %57

35:                                               ; preds = %29
  call void @llvm.lifetime.start.p0(i64 8, ptr %9) #9
  %36 = load i32, ptr %5, align 4, !tbaa !24
  %37 = call ptr (ptr, ...) @av_asprintf(ptr noundef @.str.28, i32 noundef %36)
  store ptr %37, ptr %9, align 8, !tbaa !30
  call void @llvm.lifetime.start.p0(i64 48, ptr %10) #9
  call void @llvm.memset.p0.i64(ptr align 8 %10, i8 0, i64 48, i1 false)
  %38 = getelementptr inbounds nuw %struct.AVFilterPad, ptr %10, i32 0, i32 0
  %39 = load ptr, ptr %9, align 8, !tbaa !30
  store ptr %39, ptr %38, align 8, !tbaa !31
  %40 = getelementptr inbounds nuw %struct.AVFilterPad, ptr %10, i32 0, i32 1
  store i32 1, ptr %40, align 8, !tbaa !33
  %41 = load ptr, ptr %9, align 8, !tbaa !30
  %42 = icmp ne ptr %41, null
  br i1 %42, label %44, label %43

43:                                               ; preds = %35
  store i32 -12, ptr %2, align 4
  store i32 1, ptr %8, align 4
  br label %51

44:                                               ; preds = %35
  %45 = load ptr, ptr %3, align 8, !tbaa !4
  %46 = call i32 @ff_append_inpad_free_name(ptr noundef %45, ptr noundef %10)
  store i32 %46, ptr %6, align 4, !tbaa !24
  %47 = icmp slt i32 %46, 0
  br i1 %47, label %48, label %50

48:                                               ; preds = %44
  %49 = load i32, ptr %6, align 4, !tbaa !24
  store i32 %49, ptr %2, align 4
  store i32 1, ptr %8, align 4
  br label %51

50:                                               ; preds = %44
  store i32 0, ptr %8, align 4
  br label %51

51:                                               ; preds = %50, %48, %43
  call void @llvm.lifetime.end.p0(i64 48, ptr %10) #9
  call void @llvm.lifetime.end.p0(i64 8, ptr %9) #9
  %52 = load i32, ptr %8, align 4
  switch i32 %52, label %78 [
    i32 0, label %53
  ]

53:                                               ; preds = %51
  br label %54

54:                                               ; preds = %53
  %55 = load i32, ptr %5, align 4, !tbaa !24
  %56 = add nsw i32 %55, 1
  store i32 %56, ptr %5, align 4, !tbaa !24
  br label %29, !llvm.loop !34

57:                                               ; preds = %29
  %58 = load ptr, ptr %4, align 8, !tbaa !22
  %59 = getelementptr inbounds nuw %struct.HeadphoneContext, ptr %58, i32 0, i32 2
  %60 = load i32, ptr %59, align 8, !tbaa !36
  %61 = icmp eq i32 %60, 0
  br i1 %61, label %62, label %77

62:                                               ; preds = %57
  call void @llvm.lifetime.start.p0(i64 8, ptr %11) #9
  %63 = call ptr @avpriv_float_dsp_alloc(i32 noundef 0)
  store ptr %63, ptr %11, align 8, !tbaa !37
  %64 = load ptr, ptr %11, align 8, !tbaa !37
  %65 = icmp ne ptr %64, null
  br i1 %65, label %67, label %66

66:                                               ; preds = %62
  store i32 -12, ptr %2, align 4
  store i32 1, ptr %8, align 4
  br label %74

67:                                               ; preds = %62
  %68 = load ptr, ptr %11, align 8, !tbaa !37
  %69 = getelementptr inbounds nuw %struct.AVFloatDSPContext, ptr %68, i32 0, i32 9
  %70 = load ptr, ptr %69, align 8, !tbaa !39
  %71 = load ptr, ptr %4, align 8, !tbaa !22
  %72 = getelementptr inbounds nuw %struct.HeadphoneContext, ptr %71, i32 0, i32 29
  store ptr %70, ptr %72, align 8, !tbaa !41
  %73 = load ptr, ptr %11, align 8, !tbaa !37
  call void @av_free(ptr noundef %73)
  store i32 0, ptr %8, align 4
  br label %74

74:                                               ; preds = %67, %66
  call void @llvm.lifetime.end.p0(i64 8, ptr %11) #9
  %75 = load i32, ptr %8, align 4
  switch i32 %75, label %78 [
    i32 0, label %76
  ]

76:                                               ; preds = %74
  br label %77

77:                                               ; preds = %76, %57
  store i32 0, ptr %2, align 4
  store i32 1, ptr %8, align 4
  br label %78

78:                                               ; preds = %77, %74, %51, %25, %18
  call void @llvm.lifetime.end.p0(i64 48, ptr %7) #9
  call void @llvm.lifetime.end.p0(i64 4, ptr %6) #9
  call void @llvm.lifetime.end.p0(i64 4, ptr %5) #9
  call void @llvm.lifetime.end.p0(i64 8, ptr %4) #9
  %79 = load i32, ptr %2, align 4
  ret i32 %79
}