; Function Attrs: cold nounwind optsize uwtable
define internal range(i32 -2147483648, 1) i32 @init(ptr noundef %0) #0 {
  %2 = alloca ptr, align 8
  %3 = alloca %struct.AVFilterPad, align 8
  %4 = alloca %struct.AVFilterPad, align 8
  %5 = getelementptr inbounds nuw i8, ptr %0, i64 72
  %6 = load ptr, ptr %5, align 8, !tbaa !4
  call void @llvm.lifetime.start.p0(i64 48, ptr nonnull %3) #8
  call void @llvm.memcpy.p0.p0.i64(ptr noundef nonnull align 8 dereferenceable(48) %3, ptr noundef nonnull align 8 dereferenceable(48) @__const.init.pad, i64 48, i1 false)
  %7 = call i32 @ff_append_inpad(ptr noundef %0, ptr noundef nonnull %3) #8
  %8 = icmp slt i32 %7, 0
  br i1 %8, label %.thread32, label %9

9:                                                ; preds = %1
  %10 = getelementptr inbounds nuw i8, ptr %6, i64 8
  %11 = load ptr, ptr %10, align 8, !tbaa !20
  %.not = icmp eq ptr %11, null
  br i1 %.not, label %12, label %13

12:                                               ; preds = %9
  call void (ptr, i32, ptr, ...) @av_log(ptr noundef nonnull %0, i32 noundef 16, ptr noundef nonnull @.str.27) #8
  br label %.thread32

13:                                               ; preds = %9
  %14 = load ptr, ptr %5, align 8, !tbaa !4
  call void @llvm.lifetime.start.p0(i64 8, ptr nonnull %2) #8
  %15 = getelementptr inbounds nuw i8, ptr %14, i64 8
  %16 = load ptr, ptr %15, align 8, !tbaa !20
  %17 = call ptr @av_strtok(ptr noundef %16, ptr noundef nonnull @.str.30, ptr noundef nonnull %2) #8
  %.not29.i = icmp eq ptr %17, null
  br i1 %.not29.i, label %._crit_edge.i, label %.lr.ph.i

.lr.ph.i:                                         ; preds = %13
  %18 = getelementptr inbounds nuw i8, ptr %14, i64 808
  %19 = getelementptr inbounds nuw i8, ptr %14, i64 44
  br label %20

20:                                               ; preds = %35, %.lr.ph.i
  %21 = phi ptr [ %17, %.lr.ph.i ], [ %36, %35 ]
  %.030.i = phi i64 [ 0, %.lr.ph.i ], [ %.1.i, %35 ]
  %22 = call i32 @av_channel_from_string(ptr noundef nonnull %21) #8
  %or.cond.i.i = icmp ugt i32 %22, 63
  br i1 %or.cond.i.i, label %parse_channel_name.exit.i, label %23

parse_channel_name.exit.i:                        ; preds = %20
  call void (ptr, i32, ptr, ...) @av_log(ptr noundef %0, i32 noundef 24, ptr noundef nonnull @.str.31, ptr noundef nonnull %21) #8
  br label %35, !llvm.loop !24

23:                                               ; preds = %20
  %24 = zext nneg i32 %22 to i64
  %25 = shl nuw i64 1, %24
  %26 = and i64 %25, %.030.i
  %.not21.i = icmp eq i64 %26, 0
  br i1 %.not21.i, label %28, label %27

27:                                               ; preds = %23
  call void (ptr, i32, ptr, ...) @av_log(ptr noundef %0, i32 noundef 24, ptr noundef nonnull @.str.32, ptr noundef nonnull %21) #8
  br label %35, !llvm.loop !24

28:                                               ; preds = %23
  %29 = or i64 %25, %.030.i
  %30 = load i32, ptr %19, align 4, !tbaa !26
  %31 = sext i32 %30 to i64
  %32 = getelementptr inbounds [64 x i32], ptr %18, i64 0, i64 %31
  store i32 %22, ptr %32, align 4, !tbaa !27
  %33 = load i32, ptr %19, align 4, !tbaa !26
  %34 = add nsw i32 %33, 1
  store i32 %34, ptr %19, align 4, !tbaa !26
  br label %35

35:                                               ; preds = %28, %27, %parse_channel_name.exit.i
  %.1.i = phi i64 [ %.030.i, %parse_channel_name.exit.i ], [ %.030.i, %27 ], [ %29, %28 ]
  %36 = call ptr @av_strtok(ptr noundef null, ptr noundef nonnull @.str.30, ptr noundef nonnull %2) #8
  %.not.i = icmp eq ptr %36, null
  br i1 %.not.i, label %._crit_edge.i, label %20

._crit_edge.i:                                    ; preds = %35, %13
  %.0.lcssa.i = phi i64 [ 0, %13 ], [ %.1.i, %35 ]
  %37 = getelementptr inbounds nuw i8, ptr %14, i64 784
  %38 = call i32 @av_channel_layout_from_mask(ptr noundef nonnull %37, i64 noundef %.0.lcssa.i) #8
  %39 = getelementptr inbounds nuw i8, ptr %14, i64 100
  %40 = load i32, ptr %39, align 4, !tbaa !28
  %41 = icmp eq i32 %40, 1
  br i1 %41, label %parse_map.exit, label %42

42:                                               ; preds = %._crit_edge.i
  %43 = getelementptr inbounds nuw i8, ptr %14, i64 44
  %44 = load i32, ptr %43, align 4, !tbaa !26
  br label %parse_map.exit

parse_map.exit:                                   ; preds = %._crit_edge.i, %42
  %.sink.i = phi i32 [ %44, %42 ], [ 1, %._crit_edge.i ]
  %45 = getelementptr inbounds nuw i8, ptr %14, i64 40
  store i32 %.sink.i, ptr %45, align 8, !tbaa !29
  call void @llvm.lifetime.end.p0(i64 8, ptr nonnull %2) #8
  %46 = getelementptr inbounds nuw i8, ptr %6, i64 40
  %47 = load i32, ptr %46, align 8, !tbaa !29
  %48 = icmp sgt i32 %47, 0
  br i1 %48, label %.lr.ph, label %._crit_edge

.lr.ph:                                           ; preds = %parse_map.exit
  %49 = getelementptr inbounds nuw i8, ptr %4, i64 8
  %50 = getelementptr inbounds nuw i8, ptr %4, i64 8
  br label %55

51:                                               ; preds = %57
  %52 = add nuw nsw i32 %.02234, 1
  %53 = load i32, ptr %46, align 8, !tbaa !29
  %54 = icmp slt i32 %52, %53
  br i1 %54, label %55, label %._crit_edge, !llvm.loop !30

55:                                               ; preds = %.lr.ph, %51
  %.02234 = phi i32 [ 0, %.lr.ph ], [ %52, %51 ]
  %56 = call ptr (ptr, ...) @av_asprintf(ptr noundef nonnull @.str.28, i32 noundef %.02234) #8
  call void @llvm.lifetime.start.p0(i64 48, ptr nonnull %4) #8
  call void @llvm.memset.p0.i64(ptr noundef nonnull align 8 dereferenceable(40) %50, i8 0, i64 40, i1 false)
  store ptr %56, ptr %4, align 8, !tbaa !31
  store i32 1, ptr %49, align 8, !tbaa !33
  %.not29 = icmp eq ptr %56, null
  br i1 %.not29, label %.thread, label %57

.thread:                                          ; preds = %55
  call void @llvm.lifetime.end.p0(i64 48, ptr nonnull %4) #8
  br label %.thread32

57:                                               ; preds = %55
  %58 = call i32 @ff_append_inpad_free_name(ptr noundef %0, ptr noundef nonnull %4) #8
  %59 = icmp sgt i32 %58, -1
  call void @llvm.lifetime.end.p0(i64 48, ptr nonnull %4) #8
  br i1 %59, label %51, label %.thread32

._crit_edge:                                      ; preds = %51, %parse_map.exit
  %60 = getelementptr inbounds nuw i8, ptr %6, i64 16
  %61 = load i32, ptr %60, align 8, !tbaa !34
  %62 = icmp eq i32 %61, 0
  br i1 %62, label %63, label %.thread32

63:                                               ; preds = %._crit_edge
  %64 = call ptr @avpriv_float_dsp_alloc(i32 noundef 0) #8
  %.not28.not = icmp eq ptr %64, null
  br i1 %.not28.not, label %.thread32, label %65

65:                                               ; preds = %63
  %66 = getelementptr inbounds nuw i8, ptr %64, i64 72
  %67 = load ptr, ptr %66, align 8, !tbaa !35
  %68 = getelementptr inbounds nuw i8, ptr %6, i64 264
  store ptr %67, ptr %68, align 8, !tbaa !37
  call void @av_free(ptr noundef nonnull %64) #8
  br label %.thread32

.thread32:                                        ; preds = %57, %63, %._crit_edge, %65, %.thread, %1, %12
  %.0 = phi i32 [ -22, %12 ], [ %7, %1 ], [ -12, %.thread ], [ 0, %65 ], [ 0, %._crit_edge ], [ -12, %63 ], [ %58, %57 ]
  call void @llvm.lifetime.end.p0(i64 48, ptr nonnull %3) #8
  ret i32 %.0
}